; Function Attrs: mustprogress nofree norecurse nosync nounwind willreturn memory(read, inaccessiblemem: none) uwtable
define hidden noundef zeroext i1 @_ZNK4cvc58internal8Sequence9hasPrefixERKS1_(ptr noundef nonnull readonly align 8 captures(none) dereferenceable(32) %0, ptr noundef nonnull readonly align 8 captures(none) dereferenceable(32) %1) local_unnamed_addr #9 align 2 {
  %3 = getelementptr inbounds nuw i8, ptr %0, i64 8
  %4 = getelementptr inbounds nuw i8, ptr %0, i64 16
  %5 = load ptr, ptr %4, align 8, !tbaa !13
  %6 = load ptr, ptr %3, align 8, !tbaa !16
  %7 = ptrtoint ptr %5 to i64
  %8 = ptrtoint ptr %6 to i64
  %9 = sub i64 %7, %8
  %10 = getelementptr inbounds nuw i8, ptr %1, i64 8
  %11 = getelementptr inbounds nuw i8, ptr %1, i64 16
  %12 = load ptr, ptr %11, align 8, !tbaa !13
  %13 = load ptr, ptr %10, align 8, !tbaa !16
  %14 = ptrtoint ptr %12 to i64
  %15 = ptrtoint ptr %13 to i64
  %16 = sub i64 %14, %15
  %17 = ashr exact i64 %16, 3
  %18 = icmp ugt i64 %16, %9
  br i1 %18, label %.loopexit, label %.preheader

.preheader:                                       ; preds = %2
  %.not15 = icmp eq ptr %12, %13
  br i1 %.not15, label %.loopexit, label %.lr.ph.preheader

.lr.ph.preheader:                                 ; preds = %.preheader
  %umax = tail call i64 @llvm.umax.i64(i64 %17, i64 1)
  br label %.lr.ph

.lr.ph:                                           ; preds = %.lr.ph, %.lr.ph.preheader
  %.016 = phi i64 [ 0, %.lr.ph.preheader ], [ %23, %.lr.ph ]
  %19 = getelementptr inbounds nuw %"class.cvc5::internal::NodeTemplate", ptr %6, i64 %.016
  %20 = getelementptr inbounds nuw %"class.cvc5::internal::NodeTemplate", ptr %13, i64 %.016
  %21 = load ptr, ptr %19, align 8, !tbaa !19
  %22 = load ptr, ptr %20, align 8, !tbaa !19
  %.not14 = icmp eq ptr %21, %22
  %23 = add nuw i64 %.016, 1
  %exitcond.not = icmp ne i64 %23, %umax
  %or.cond.not = select i1 %.not14, i1 %exitcond.not, i1 false
  br i1 %or.cond.not, label %.lr.ph, label %.loopexit, !llvm.loop !44

.loopexit:                                        ; preds = %.lr.ph, %.preheader, %2
  %.012 = phi i1 [ false, %2 ], [ true, %.preheader ], [ %.not14, %.lr.ph ]
  ret i1 %.012
}